; Function Attrs: mustprogress nounwind uwtable
define void @_ZN6icu_7712UnifiedCacheD2Ev(ptr noundef nonnull align 8 dereferenceable(56) initializes((0, 8)) %0) unnamed_addr #2 align 2 personality ptr @__gxx_personality_v0 {
  store ptr getelementptr inbounds nuw inrange(-16, 32) (i8, ptr @_ZTVN6icu_7712UnifiedCacheE, i64 16), ptr %0, align 8, !tbaa !3
  %2 = load ptr, ptr @_ZL11gCacheMutex, align 8, !tbaa !9
  %3 = tail call noundef i32 @pthread_mutex_lock(ptr noundef nonnull align 8 dereferenceable(40) %2) #16
  %.not.i.i.i = icmp eq i32 %3, 0
  br i1 %.not.i.i.i, label %_ZNSt10lock_guardISt5mutexEC2ERS0_.exit.i, label %.invoke

_ZNSt10lock_guardISt5mutexEC2ERS0_.exit.i:        ; preds = %1, %5
  %4 = invoke noundef signext i8 @_ZNK6icu_7712UnifiedCache6_flushEa(ptr noundef nonnull align 8 dereferenceable(56) %0, i8 noundef signext 0)
          to label %5 unwind label %6

5:                                                ; preds = %_ZNSt10lock_guardISt5mutexEC2ERS0_.exit.i
  %.not.i = icmp eq i8 %4, 0
  br i1 %.not.i, label %9, label %_ZNSt10lock_guardISt5mutexEC2ERS0_.exit.i, !llvm.loop !39

6:                                                ; preds = %_ZNSt10lock_guardISt5mutexEC2ERS0_.exit.i
  %7 = landingpad { ptr, i32 }
          catch ptr null
  %8 = tail call noundef i32 @pthread_mutex_unlock(ptr noundef nonnull align 8 dereferenceable(40) %2) #16
  br label %.body

9:                                                ; preds = %5
  %10 = tail call noundef i32 @pthread_mutex_unlock(ptr noundef nonnull align 8 dereferenceable(40) %2) #16
  %11 = load ptr, ptr @_ZL11gCacheMutex, align 8, !tbaa !9
  %12 = tail call noundef i32 @pthread_mutex_lock(ptr noundef nonnull align 8 dereferenceable(40) %11) #16
  %.not.i.i = icmp eq i32 %12, 0
  br i1 %.not.i.i, label %_ZNSt10lock_guardISt5mutexEC2ERS0_.exit, label %.invoke

.invoke:                                          ; preds = %9, %1
  %13 = phi i32 [ %3, %1 ], [ %12, %9 ]
  invoke void @_ZSt20__throw_system_errori(i32 noundef %13) #18
          to label %.cont unwind label %28

.cont:                                            ; preds = %.invoke
  unreachable

_ZNSt10lock_guardISt5mutexEC2ERS0_.exit:          ; preds = %9
  %14 = invoke noundef signext i8 @_ZNK6icu_7712UnifiedCache6_flushEa(ptr noundef nonnull align 8 dereferenceable(56) %0, i8 noundef signext 1)
          to label %15 unwind label %28

15:                                               ; preds = %_ZNSt10lock_guardISt5mutexEC2ERS0_.exit
  %16 = tail call noundef i32 @pthread_mutex_unlock(ptr noundef nonnull align 8 dereferenceable(40) %11) #16
  %17 = getelementptr inbounds nuw i8, ptr %0, i64 8
  %18 = load ptr, ptr %17, align 8, !tbaa !21
  invoke void @uhash_close_77(ptr noundef %18)
          to label %19 unwind label %28

19:                                               ; preds = %15
  store ptr null, ptr %17, align 8, !tbaa !21
  %20 = getelementptr inbounds nuw i8, ptr %0, i64 48
  %21 = load ptr, ptr %20, align 8, !tbaa !33
  %22 = icmp eq ptr %21, null
  br i1 %22, label %27, label %23

23:                                               ; preds = %19
  %24 = load ptr, ptr %21, align 8, !tbaa !3
  %25 = getelementptr inbounds nuw i8, ptr %24, i64 8
  %26 = load ptr, ptr %25, align 8
  tail call void %26(ptr noundef nonnull align 8 dereferenceable(24) %21) #16
  br label %27

27:                                               ; preds = %23, %19
  store ptr null, ptr %20, align 8, !tbaa !33
  tail call void @_ZN6icu_7716UnifiedCacheBaseD2Ev(ptr noundef nonnull align 8 dereferenceable(8) %0) #16
  ret void

28:                                               ; preds = %.invoke, %15, %_ZNSt10lock_guardISt5mutexEC2ERS0_.exit
  %29 = landingpad { ptr, i32 }
          catch ptr null
  br label %.body

.body:                                            ; preds = %6, %28
  %eh.lpad-body = phi { ptr, i32 } [ %29, %28 ], [ %7, %6 ]
  %30 = extractvalue { ptr, i32 } %eh.lpad-body, 0
  tail call void @__clang_call_terminate(ptr %30) #17
  unreachable
}